; Function Attrs: mustprogress nofree nosync nounwind willreturn memory(readwrite, inaccessiblemem: none) uwtable
define internal noundef i32 @acrossfade_config_output(ptr noundef captures(none) initializes((96, 104)) %0) #5 {
  %2 = load ptr, ptr %0, align 8, !tbaa !28
  %3 = getelementptr inbounds nuw i8, ptr %2, i64 72
  %4 = load ptr, ptr %3, align 8, !tbaa !4
  %5 = getelementptr inbounds nuw i8, ptr %0, i64 96
  %6 = getelementptr inbounds nuw i8, ptr %2, i64 32
  %7 = load ptr, ptr %6, align 8, !tbaa !46
  %8 = load ptr, ptr %7, align 8, !tbaa !26
  %9 = getelementptr inbounds nuw i8, ptr %8, i64 96
  %10 = load i64, ptr %9, align 8
  store i64 %10, ptr %5, align 8
  %11 = getelementptr inbounds nuw i8, ptr %0, i64 36
  %12 = load i32, ptr %11, align 4, !tbaa !37
  %switch.tableidx = add i32 %12, -1
  %13 = icmp ult i32 %switch.tableidx, 9
  %switch.maskindex = trunc i32 %switch.tableidx to i16
  %switch.shifted = lshr i16 495, %switch.maskindex
  %switch.lobit = trunc i16 %switch.shifted to i1
  %or.cond = select i1 %13, i1 %switch.lobit, i1 false
  br i1 %or.cond, label %switch.lookup, label %14

14:                                               ; preds = %1
  %15 = load ptr, ptr %3, align 8, !tbaa !4
  br label %23

switch.lookup:                                    ; preds = %1
  %16 = zext nneg i32 %switch.tableidx to i64
  %switch.gep = getelementptr inbounds nuw [9 x ptr], ptr @switch.table.acrossfade_config_output, i64 0, i64 %16
  %switch.load = load ptr, ptr %switch.gep, align 8
  %17 = zext nneg i32 %switch.tableidx to i64
  %switch.gep21 = getelementptr inbounds nuw [9 x ptr], ptr @switch.table.acrossfade_config_output.3, i64 0, i64 %17
  %switch.load22 = load ptr, ptr %switch.gep21, align 8
  %18 = zext nneg i32 %switch.tableidx to i64
  %switch.gep23 = getelementptr inbounds nuw [9 x ptr], ptr @switch.table.acrossfade_config_output.4, i64 0, i64 %18
  %switch.load24 = load ptr, ptr %switch.gep23, align 8
  %19 = getelementptr inbounds nuw i8, ptr %4, i64 112
  store ptr %switch.load, ptr %19, align 8, !tbaa !60
  %20 = load ptr, ptr %3, align 8, !tbaa !4
  %21 = getelementptr inbounds nuw i8, ptr %20, i64 96
  store ptr %switch.load22, ptr %21, align 8, !tbaa !38
  %22 = getelementptr inbounds nuw i8, ptr %20, i64 104
  store ptr %switch.load24, ptr %22, align 8, !tbaa !39
  br label %23

23:                                               ; preds = %14, %switch.lookup
  %24 = phi ptr [ %20, %switch.lookup ], [ %15, %14 ]
  %25 = getelementptr inbounds nuw i8, ptr %24, i64 40
  %26 = load i64, ptr %25, align 8, !tbaa !40
  %.not.i = icmp eq i64 %26, 0
  br i1 %.not.i, label %33, label %27

27:                                               ; preds = %23
  %28 = getelementptr inbounds nuw i8, ptr %0, i64 64
  %29 = load i32, ptr %28, align 8, !tbaa !41
  %30 = sext i32 %29 to i64
  %31 = tail call i64 @av_rescale(i64 noundef %26, i64 noundef %30, i64 noundef 1000000) #12
  %32 = getelementptr inbounds nuw i8, ptr %24, i64 24
  store i64 %31, ptr %32, align 8, !tbaa !20
  br label %33

33:                                               ; preds = %27, %23
  store i64 0, ptr %25, align 8, !tbaa !40
  %34 = getelementptr inbounds nuw i8, ptr %24, i64 48
  %35 = load i64, ptr %34, align 8, !tbaa !42
  %.not30.i = icmp eq i64 %35, 0
  br i1 %.not30.i, label %config_output.exit, label %36

36:                                               ; preds = %33
  %37 = getelementptr inbounds nuw i8, ptr %0, i64 64
  %38 = load i32, ptr %37, align 8, !tbaa !41
  %39 = sext i32 %38 to i64
  %40 = tail call i64 @av_rescale(i64 noundef %35, i64 noundef %39, i64 noundef 1000000) #12
  %41 = getelementptr inbounds nuw i8, ptr %24, i64 32
  store i64 %40, ptr %41, align 8, !tbaa !24
  br label %config_output.exit

config_output.exit:                               ; preds = %33, %36
  store i64 0, ptr %34, align 8, !tbaa !42
  ret i32 0
}